; Function Attrs: mustprogress uwtable
define void @_ZNK9grpc_core22XdsCertificateProvider4typeEv(ptr noalias nocapture writeonly sret(%"class.grpc_core::UniqueTypeName") align 8 %agg.result, ptr nocapture nonnull readnone align 8 %this) unnamed_addr #6 align 2 personality ptr @__gxx_personality_v0 {
entry:
  %0 = load atomic i8, ptr @_ZGVZNK9grpc_core22XdsCertificateProvider4typeEvE8kFactory acquire, align 8
  %guard.uninitialized = icmp eq i8 %0, 0
  br i1 %guard.uninitialized, label %init.check, label %init.end, !prof !19

init.check:                                       ; preds = %entry
  %1 = tail call i32 @__cxa_guard_acquire(ptr nonnull @_ZGVZNK9grpc_core22XdsCertificateProvider4typeEvE8kFactory) #18
  %tobool.not = icmp eq i32 %1, 0
  br i1 %tobool.not, label %init.end, label %init

init:                                             ; preds = %init.check
  invoke void @_ZN9grpc_core14UniqueTypeName7FactoryC2ESt17basic_string_viewIcSt11char_traitsIcEE(ptr noundef nonnull align 8 dereferenceable(8) @_ZZNK9grpc_core22XdsCertificateProvider4typeEvE8kFactory, i64 3, ptr nonnull @.str.6)
          to label %invoke.cont unwind label %lpad

invoke.cont:                                      ; preds = %init
  tail call void @__cxa_guard_release(ptr nonnull @_ZGVZNK9grpc_core22XdsCertificateProvider4typeEvE8kFactory) #18
  br label %init.end

init.end:                                         ; preds = %invoke.cont, %init.check, %entry
  tail call void @llvm.experimental.noalias.scope.decl(metadata !20)
  %2 = load ptr, ptr @_ZZNK9grpc_core22XdsCertificateProvider4typeEvE8kFactory, align 8, !noalias !20
  %call.i = tail call { i64, ptr } @_ZNKSt7__cxx1112basic_stringIcSt11char_traitsIcESaIcEEcvSt17basic_string_viewIcS2_EEv(ptr noundef nonnull align 8 dereferenceable(32) %2) #18, !noalias !20
  %3 = extractvalue { i64, ptr } %call.i, 0
  %4 = extractvalue { i64, ptr } %call.i, 1
  store i64 %3, ptr %agg.result, align 8, !alias.scope !20
  %name.sroa.2.0.name_.sroa_idx.i.i = getelementptr inbounds i8, ptr %agg.result, i64 8
  store ptr %4, ptr %name.sroa.2.0.name_.sroa_idx.i.i, align 8, !alias.scope !20
  ret void

lpad:                                             ; preds = %init
  %5 = landingpad { ptr, i32 }
          cleanup
  tail call void @__cxa_guard_abort(ptr nonnull @_ZGVZNK9grpc_core22XdsCertificateProvider4typeEvE8kFactory) #18
  resume { ptr, i32 } %5
}